; Function Attrs: mustprogress uwtable
define dso_local void @_ZN10cmCTestSVN14WriteXMLGlobalER11cmXMLWriter(ptr noundef nonnull align 8 dereferenceable(816) %0, ptr noundef nonnull align 8 dereferenceable(83) %1) unnamed_addr #3 align 2 personality ptr @__gxx_personality_v0 {
  %3 = alloca %class.cmXMLSafe, align 8
  %4 = alloca %class.cmXMLSafe, align 8
  %5 = alloca %"class.std::__cxx11::basic_string", align 8
  %6 = alloca %"class.std::allocator", align 1
  tail call void @_ZN15cmCTestGlobalVC14WriteXMLGlobalER11cmXMLWriter(ptr noundef nonnull align 8 dereferenceable(784) %0, ptr noundef nonnull align 8 dereferenceable(83) %1)
  call void @_ZNSaIcEC1Ev(ptr noundef nonnull align 1 dereferenceable(1) %6) #19
  %7 = invoke noundef ptr @_ZNSt7__cxx1112basic_stringIcSt11char_traitsIcESaIcEE13_M_local_dataEv(ptr noundef nonnull align 8 dereferenceable(32) %5)
          to label %.noexc unwind label %16

.noexc:                                           ; preds = %2
  invoke void @_ZNSt7__cxx1112basic_stringIcSt11char_traitsIcESaIcEE12_Alloc_hiderC1EPcRKS3_(ptr noundef nonnull align 8 dereferenceable(8) %5, ptr noundef %7, ptr noundef nonnull align 1 dereferenceable(1) %6)
          to label %.noexc6 unwind label %16

.noexc6:                                          ; preds = %.noexc
  invoke void @_ZNSt7__cxx1112basic_stringIcSt11char_traitsIcESaIcEE12_M_constructIPKcEEvT_S8_St20forward_iterator_tag(ptr noundef nonnull align 8 dereferenceable(32) %5, ptr noundef nonnull @.str.39, ptr noundef nonnull getelementptr inbounds ([8 x i8], ptr @.str.39, i64 0, i64 7))
          to label %_ZNSt7__cxx1112basic_stringIcSt11char_traitsIcESaIcEEC2IS3_EEPKcRKS3_.exit unwind label %8

8:                                                ; preds = %.noexc6
  %9 = landingpad { ptr, i32 }
          cleanup
  call void @_ZNSaIcED2Ev(ptr noundef nonnull align 1 dereferenceable(1) %5) #19
  br label %.body

_ZNSt7__cxx1112basic_stringIcSt11char_traitsIcESaIcEEC2IS3_EEPKcRKS3_.exit: ; preds = %.noexc6
  %10 = getelementptr inbounds i8, ptr %0, i64 808
  %11 = load ptr, ptr %10, align 8
  %12 = getelementptr inbounds i8, ptr %11, i64 96
  invoke void @_ZN11cmXMLWriter12StartElementERKNSt7__cxx1112basic_stringIcSt11char_traitsIcESaIcEEE(ptr noundef nonnull align 8 dereferenceable(83) %1, ptr noundef nonnull align 8 dereferenceable(32) %5)
          to label %.noexc7 unwind label %18

.noexc7:                                          ; preds = %_ZNSt7__cxx1112basic_stringIcSt11char_traitsIcESaIcEEC2IS3_EEPKcRKS3_.exit
  call void @llvm.lifetime.start.p0(i64 24, ptr nonnull %4)
  invoke void @_ZN11cmXMLWriter10PreContentEv(ptr noundef nonnull align 8 dereferenceable(83) %1)
          to label %.noexc8 unwind label %18

.noexc8:                                          ; preds = %.noexc7
  %13 = load ptr, ptr %1, align 8
  call void @llvm.lifetime.start.p0(i64 24, ptr nonnull %3)
  invoke void @_ZN9cmXMLSafeC1ERKNSt7__cxx1112basic_stringIcSt11char_traitsIcESaIcEEE(ptr noundef nonnull align 8 dereferenceable(17) %3, ptr noundef nonnull align 8 dereferenceable(32) %12)
          to label %.noexc9 unwind label %18

.noexc9:                                          ; preds = %.noexc8
  %14 = invoke noundef nonnull align 8 dereferenceable(17) ptr @_ZN9cmXMLSafe6QuotesEb(ptr noundef nonnull align 8 dereferenceable(17) %3, i1 noundef zeroext false)
          to label %.noexc10 unwind label %18

.noexc10:                                         ; preds = %.noexc9
  call void @llvm.memcpy.p0.p0.i64(ptr noundef nonnull align 8 dereferenceable(24) %4, ptr noundef nonnull align 8 dereferenceable(24) %14, i64 24, i1 false)
  call void @llvm.lifetime.end.p0(i64 24, ptr nonnull %3)
  %15 = invoke noundef nonnull align 8 dereferenceable(8) ptr @_ZlsRSoRK9cmXMLSafe(ptr noundef nonnull align 8 dereferenceable(8) %13, ptr noundef nonnull align 8 dereferenceable(17) %4)
          to label %.noexc11 unwind label %18

.noexc11:                                         ; preds = %.noexc10
  call void @llvm.lifetime.end.p0(i64 24, ptr nonnull %4)
  invoke void @_ZN11cmXMLWriter10EndElementEv(ptr noundef nonnull align 8 dereferenceable(83) %1)
          to label %_ZN11cmXMLWriter7ElementINSt7__cxx1112basic_stringIcSt11char_traitsIcESaIcEEEEEvRKS6_RKT_.exit unwind label %18

_ZN11cmXMLWriter7ElementINSt7__cxx1112basic_stringIcSt11char_traitsIcESaIcEEEEEvRKS6_RKT_.exit: ; preds = %.noexc11
  call void @_ZNSt7__cxx1112basic_stringIcSt11char_traitsIcESaIcEED1Ev(ptr noundef nonnull align 8 dereferenceable(32) %5) #19
  call void @_ZNSaIcED1Ev(ptr noundef nonnull align 1 dereferenceable(1) %6) #19
  ret void

16:                                               ; preds = %.noexc, %2
  %17 = landingpad { ptr, i32 }
          cleanup
  br label %.body

18:                                               ; preds = %.noexc11, %.noexc10, %.noexc9, %.noexc8, %.noexc7, %_ZNSt7__cxx1112basic_stringIcSt11char_traitsIcESaIcEEC2IS3_EEPKcRKS3_.exit
  %19 = landingpad { ptr, i32 }
          cleanup
  call void @_ZNSt7__cxx1112basic_stringIcSt11char_traitsIcESaIcEED1Ev(ptr noundef nonnull align 8 dereferenceable(32) %5) #19
  br label %.body

.body:                                            ; preds = %16, %8, %18
  %.pn = phi { ptr, i32 } [ %19, %18 ], [ %17, %16 ], [ %9, %8 ]
  call void @_ZNSaIcED1Ev(ptr noundef nonnull align 1 dereferenceable(1) %6) #19
  resume { ptr, i32 } %.pn
}